target datalayout = "e-m:e-p270:32:32-p271:32:32-p272:64:64-i64:64-i128:128-f80:128-n8:16:32:64-S128"
target triple = "x86_64-pc-linux-gnu"

%struct.SDL_Renderer = type { ptr, ptr, ptr, ptr, ptr, ptr, ptr, ptr, ptr, ptr, ptr, ptr, ptr, ptr, ptr, ptr, ptr, ptr, ptr, ptr, ptr, ptr, ptr, ptr, ptr, ptr, ptr, ptr, ptr, ptr, i32, i8, ptr, i8, i8, i8, i64, i64, ptr, %struct.SDL_RenderViewState, %struct.SDL_FPoint, i32, i32, ptr, ptr, ptr, i32, float, float, float, float, %struct.SDL_FColor, i32, i32, i32, ptr, ptr, ptr, ptr, i32, %struct.SDL_FColor, float, %struct.SDL_Rect, %struct.SDL_Rect, i8, i8, i8, i8, ptr, i64, i64, i8, ptr, ptr, i32, ptr, i8, ptr, ptr }
%struct.SDL_RenderViewState = type { i32, i32, %struct.SDL_Rect, %struct.SDL_Rect, %struct.SDL_Rect, %struct.SDL_Rect, i8, %struct.SDL_FPoint, i32, i32, i32, %struct.SDL_FRect, %struct.SDL_FRect, %struct.SDL_FPoint, %struct.SDL_FPoint, %struct.SDL_FPoint }
%struct.SDL_FRect = type { float, float, float, float }
%struct.SDL_FPoint = type { float, float }
%struct.SDL_FColor = type { float, float, float, float }
%struct.SDL_Rect = type { i32, i32, i32, i32 }
%struct.SDL_RenderCommand = type { i32, %union.anon, ptr }
%union.anon = type { %struct.anon.1 }
%struct.anon.1 = type { i64, i64, float, %struct.SDL_FColor, i32, ptr, i32, i32, i32, ptr }

; Function Attrs: inlinehint nounwind uwtable
define internal void @DebugLogRenderCommands(ptr noundef %0) #6 {
  %2 = alloca ptr, align 8
  store ptr %0, ptr %2, align 8
  ret void
}

; Function Attrs: nounwind uwtable
define internal zeroext i1 @FlushRenderCommands(ptr noundef %0) #0 {
  %2 = alloca i1, align 1
  %3 = alloca ptr, align 8
  %4 = alloca i8, align 1
  %5 = alloca i32, align 4
  store ptr %0, ptr %3, align 8
  call void @llvm.lifetime.start.p0(i64 1, ptr %4) #10
  br label %6

6:                                                ; preds = %1
  br label %7

7:                                                ; preds = %6
  br label %8

8:                                                ; preds = %7
  %9 = load ptr, ptr %3, align 8
  %10 = getelementptr inbounds nuw %struct.SDL_Renderer, ptr %9, i32 0, i32 56
  %11 = load ptr, ptr %10, align 8
  %12 = icmp ne ptr %11, null
  br i1 %12, label %17, label %13

13:                                               ; preds = %8
  br label %14

14:                                               ; preds = %13
  br label %15

15:                                               ; preds = %14
  br label %16

16:                                               ; preds = %15
  store i1 true, ptr %2, align 1
  store i32 1, ptr %5, align 4
  br label %72

17:                                               ; preds = %8
  %18 = load ptr, ptr %3, align 8
  %19 = getelementptr inbounds nuw %struct.SDL_Renderer, ptr %18, i32 0, i32 56
  %20 = load ptr, ptr %19, align 8
  call void @DebugLogRenderCommands(ptr noundef %20)
  %21 = load ptr, ptr %3, align 8
  %22 = getelementptr inbounds nuw %struct.SDL_Renderer, ptr %21, i32 0, i32 13
  %23 = load ptr, ptr %22, align 8
  %24 = load ptr, ptr %3, align 8
  %25 = load ptr, ptr %3, align 8
  %26 = getelementptr inbounds nuw %struct.SDL_Renderer, ptr %25, i32 0, i32 56
  %27 = load ptr, ptr %26, align 8
  %28 = load ptr, ptr %3, align 8
  %29 = getelementptr inbounds nuw %struct.SDL_Renderer, ptr %28, i32 0, i32 68
  %30 = load ptr, ptr %29, align 8
  %31 = load ptr, ptr %3, align 8
  %32 = getelementptr inbounds nuw %struct.SDL_Renderer, ptr %31, i32 0, i32 69
  %33 = load i64, ptr %32, align 8
  %34 = call zeroext i1 %23(ptr noundef %24, ptr noundef %27, ptr noundef %30, i64 noundef %33)
  %35 = zext i1 %34 to i8
  store i8 %35, ptr %4, align 1
  %36 = load ptr, ptr %3, align 8
  %37 = getelementptr inbounds nuw %struct.SDL_Renderer, ptr %36, i32 0, i32 57
  %38 = load ptr, ptr %37, align 8
  %39 = icmp ne ptr %38, null
  br i1 %39, label %40, label %57

40:                                               ; preds = %17
  %41 = load ptr, ptr %3, align 8
  %42 = getelementptr inbounds nuw %struct.SDL_Renderer, ptr %41, i32 0, i32 58
  %43 = load ptr, ptr %42, align 8
  %44 = load ptr, ptr %3, align 8
  %45 = getelementptr inbounds nuw %struct.SDL_Renderer, ptr %44, i32 0, i32 57
  %46 = load ptr, ptr %45, align 8
  %47 = getelementptr inbounds nuw %struct.SDL_RenderCommand, ptr %46, i32 0, i32 2
  store ptr %43, ptr %47, align 8
  %48 = load ptr, ptr %3, align 8
  %49 = getelementptr inbounds nuw %struct.SDL_Renderer, ptr %48, i32 0, i32 56
  %50 = load ptr, ptr %49, align 8
  %51 = load ptr, ptr %3, align 8
  %52 = getelementptr inbounds nuw %struct.SDL_Renderer, ptr %51, i32 0, i32 58
  store ptr %50, ptr %52, align 8
  %53 = load ptr, ptr %3, align 8
  %54 = getelementptr inbounds nuw %struct.SDL_Renderer, ptr %53, i32 0, i32 57
  store ptr null, ptr %54, align 8
  %55 = load ptr, ptr %3, align 8
  %56 = getelementptr inbounds nuw %struct.SDL_Renderer, ptr %55, i32 0, i32 56
  store ptr null, ptr %56, align 8
  br label %57

57:                                               ; preds = %40, %17
  %58 = load ptr, ptr %3, align 8
  %59 = getelementptr inbounds nuw %struct.SDL_Renderer, ptr %58, i32 0, i32 69
  store i64 0, ptr %59, align 8
  %60 = load ptr, ptr %3, align 8
  %61 = getelementptr inbounds nuw %struct.SDL_Renderer, ptr %60, i32 0, i32 59
  %62 = load i32, ptr %61, align 8
  %63 = add i32 %62, 1
  store i32 %63, ptr %61, align 8
  %64 = load ptr, ptr %3, align 8
  %65 = getelementptr inbounds nuw %struct.SDL_Renderer, ptr %64, i32 0, i32 65
  store i8 0, ptr %65, align 1
  %66 = load ptr, ptr %3, align 8
  %67 = getelementptr inbounds nuw %struct.SDL_Renderer, ptr %66, i32 0, i32 66
  store i8 0, ptr %67, align 2
  %68 = load ptr, ptr %3, align 8
  %69 = getelementptr inbounds nuw %struct.SDL_Renderer, ptr %68, i32 0, i32 67
  store i8 0, ptr %69, align 1
  %70 = load i8, ptr %4, align 1, !range !5, !noundef !6
  %71 = trunc i8 %70 to i1
  store i1 %71, ptr %2, align 1
  store i32 1, ptr %5, align 4
  br label %72

72:                                               ; preds = %57, %16
  call void @llvm.lifetime.end.p0(i64 1, ptr %4) #10
  %73 = load i1, ptr %2, align 1
  ret i1 %73
}

; Function Attrs: nounwind uwtable
define hidden zeroext i1 @SDL_FlushRenderer_REAL(ptr noundef %0) #0 {
  %2 = alloca i1, align 1
  %3 = alloca ptr, align 8
  store ptr %0, ptr %3, align 8
  %4 = load ptr, ptr %3, align 8
  %5 = call zeroext i1 @FlushRenderCommands(ptr noundef %4)
  br i1 %5, label %7, label %6

6:                                                ; preds = %1
  store i1 false, ptr %2, align 1
  br label %12

7:                                                ; preds = %1
  %8 = load ptr, ptr %3, align 8
  %9 = getelementptr inbounds nuw %struct.SDL_Renderer, ptr %8, i32 0, i32 12
  %10 = load ptr, ptr %9, align 8
  %11 = load ptr, ptr %3, align 8
  call void %10(ptr noundef %11)
  store i1 true, ptr %2, align 1
  br label %12

12:                                               ; preds = %7, %6
  %13 = load i1, ptr %2, align 1
  ret i1 %13
}