; Function Attrs: nounwind uwtable
define hidden noundef zeroext i1 @SDL_FlushRenderer_REAL(ptr noundef %0) local_unnamed_addr #0 {
  %2 = getelementptr inbounds nuw i8, ptr %0, i64 536
  %3 = load ptr, ptr %2, align 8
  %.not.i = icmp eq ptr %3, null
  br i1 %.not.i, label %FlushRenderCommands.exit.thread, label %4

4:                                                ; preds = %1
  %5 = getelementptr inbounds nuw i8, ptr %0, i64 104
  %6 = load ptr, ptr %5, align 8
  %7 = getelementptr inbounds nuw i8, ptr %0, i64 624
  %8 = load ptr, ptr %7, align 8
  %9 = getelementptr inbounds nuw i8, ptr %0, i64 632
  %10 = load i64, ptr %9, align 8
  %11 = tail call zeroext i1 %6(ptr noundef nonnull %0, ptr noundef nonnull %3, ptr noundef %8, i64 noundef %10) #15
  %12 = getelementptr inbounds nuw i8, ptr %0, i64 544
  %13 = load ptr, ptr %12, align 8
  %.not22.i = icmp eq ptr %13, null
  br i1 %.not22.i, label %FlushRenderCommands.exit, label %14

14:                                               ; preds = %4
  %15 = getelementptr inbounds nuw i8, ptr %0, i64 552
  %16 = load ptr, ptr %15, align 8
  %17 = getelementptr inbounds nuw i8, ptr %13, i64 80
  store ptr %16, ptr %17, align 8
  %18 = load ptr, ptr %2, align 8
  store ptr %18, ptr %15, align 8
  tail call void @llvm.memset.p0.i64(ptr noundef nonnull align 8 dereferenceable(16) %2, i8 0, i64 16, i1 false)
  br label %FlushRenderCommands.exit

FlushRenderCommands.exit:                         ; preds = %4, %14
  store i64 0, ptr %9, align 8
  %19 = getelementptr inbounds nuw i8, ptr %0, i64 560
  %20 = load i32, ptr %19, align 8
  %21 = add i32 %20, 1
  store i32 %21, ptr %19, align 8
  %22 = getelementptr inbounds nuw i8, ptr %0, i64 617
  store i8 0, ptr %22, align 1
  %23 = getelementptr inbounds nuw i8, ptr %0, i64 618
  store i8 0, ptr %23, align 2
  %24 = getelementptr inbounds nuw i8, ptr %0, i64 619
  store i8 0, ptr %24, align 1
  br i1 %11, label %FlushRenderCommands.exit.thread, label %27

FlushRenderCommands.exit.thread:                  ; preds = %1, %FlushRenderCommands.exit
  %25 = getelementptr inbounds nuw i8, ptr %0, i64 96
  %26 = load ptr, ptr %25, align 8
  tail call void %26(ptr noundef nonnull %0) #15
  br label %27

27:                                               ; preds = %FlushRenderCommands.exit, %FlushRenderCommands.exit.thread
  %.0.i5 = phi i1 [ false, %FlushRenderCommands.exit ], [ true, %FlushRenderCommands.exit.thread ]
  ret i1 %.0.i5
}